target datalayout = "e-m:e-p270:32:32-p271:32:32-p272:64:64-i64:64-i128:128-f80:128-n8:16:32:64-S128"
target triple = "x86_64-pc-linux-gnu"

%struct.QVirtioPCIDevice = type { %struct.QOSGraphObject, %struct.QVirtioDevice, ptr, %struct.QPCIBar, ptr, i16, i64, i32, i32, i32, i32, i32, i32, i32 }
%struct.QOSGraphObject = type { ptr, ptr, ptr, ptr, ptr }
%struct.QVirtioDevice = type { ptr, i16, i64, i8, i8 }
%struct.QPCIBar = type { i64, i8 }
%struct.QPCIDevice = type { ptr, i32, i8, %struct.QPCIBar, %struct.QPCIBar, i64, i64 }
%struct.QPCIBus = type { ptr, ptr, ptr, ptr, ptr, ptr, ptr, ptr, ptr, ptr, ptr, ptr, ptr, ptr, ptr, ptr, ptr, i64, i64, i64, i64, i8, i8 }

@.str = private unnamed_addr constant [47 x i8] c"../qemu/tests/qtest/libqos/virtio-pci-modern.c\00", align 1
@.str.4 = private unnamed_addr constant [3 x i8] c"!=\00", align 1
@__func__.get_msix_status = private unnamed_addr constant [16 x i8] c"get_msix_status\00", align 1
@.str.5 = private unnamed_addr constant [17 x i8] c"msix_entry != -1\00", align 1
@__func__.wait_config_isr_status = private unnamed_addr constant [23 x i8] c"wait_config_isr_status\00", align 1
@.str.6 = private unnamed_addr constant [50 x i8] c"g_get_monotonic_time() - start_time <= timeout_us\00", align 1

; Function Attrs: nounwind sspstrong uwtable
define internal zeroext i1 @get_msix_status(ptr noundef %0, i32 noundef %1, i32 noundef %2, i32 noundef %3) #0 {
  %5 = alloca i1, align 1
  %6 = alloca ptr, align 8
  %7 = alloca i32, align 4
  %8 = alloca i32, align 4
  %9 = alloca i32, align 4
  %10 = alloca i32, align 4
  %11 = alloca i64, align 8
  %12 = alloca i64, align 8
  %13 = alloca i32, align 4
  store ptr %0, ptr %6, align 8
  store i32 %1, ptr %7, align 4
  store i32 %2, ptr %8, align 4
  store i32 %3, ptr %9, align 4
  call void @llvm.lifetime.start.p0(i64 4, ptr %10) #5
  store i32 0, ptr %10, align 4, !annotation !4
  br label %14

14:                                               ; preds = %4
  call void @llvm.lifetime.start.p0(i64 8, ptr %11) #5
  %15 = load i32, ptr %7, align 4
  %16 = zext i32 %15 to i64
  store i64 %16, ptr %11, align 8
  call void @llvm.lifetime.start.p0(i64 8, ptr %12) #5
  store i64 -1, ptr %12, align 8
  %17 = load i64, ptr %11, align 8
  %18 = load i64, ptr %12, align 8
  %19 = icmp ne i64 %17, %18
  br i1 %19, label %20, label %21

20:                                               ; preds = %14
  br label %26

21:                                               ; preds = %14
  %22 = load i64, ptr %11, align 8
  %23 = sitofp i64 %22 to x86_fp80
  %24 = load i64, ptr %12, align 8
  %25 = sitofp i64 %24 to x86_fp80
  call void @g_assertion_message_cmpnum(ptr noundef null, ptr noundef @.str, i32 noundef 133, ptr noundef @__func__.get_msix_status, ptr noundef @.str.5, x86_fp80 noundef %23, ptr noundef @.str.4, x86_fp80 noundef %25, i8 noundef signext 105)
  br label %26

26:                                               ; preds = %21, %20
  call void @llvm.lifetime.end.p0(i64 8, ptr %12) #5
  call void @llvm.lifetime.end.p0(i64 8, ptr %11) #5
  br label %27

27:                                               ; preds = %26
  br label %28

28:                                               ; preds = %27
  %29 = load ptr, ptr %6, align 8
  %30 = getelementptr inbounds nuw %struct.QVirtioPCIDevice, ptr %29, i32 0, i32 2
  %31 = load ptr, ptr %30, align 8
  %32 = load i32, ptr %7, align 4
  %33 = trunc i32 %32 to i16
  %34 = call zeroext i1 @qpci_msix_masked(ptr noundef %31, i16 noundef zeroext %33)
  br i1 %34, label %35, label %42

35:                                               ; preds = %28
  %36 = load ptr, ptr %6, align 8
  %37 = getelementptr inbounds nuw %struct.QVirtioPCIDevice, ptr %36, i32 0, i32 2
  %38 = load ptr, ptr %37, align 8
  %39 = load i32, ptr %7, align 4
  %40 = trunc i32 %39 to i16
  %41 = call zeroext i1 @qpci_msix_pending(ptr noundef %38, i16 noundef zeroext %40)
  store i1 %41, ptr %5, align 1
  store i32 1, ptr %13, align 4
  br label %67

42:                                               ; preds = %28
  %43 = load ptr, ptr %6, align 8
  %44 = getelementptr inbounds nuw %struct.QVirtioPCIDevice, ptr %43, i32 0, i32 2
  %45 = load ptr, ptr %44, align 8
  %46 = getelementptr inbounds nuw %struct.QPCIDevice, ptr %45, i32 0, i32 0
  %47 = load ptr, ptr %46, align 8
  %48 = getelementptr inbounds nuw %struct.QPCIBus, ptr %47, i32 0, i32 16
  %49 = load ptr, ptr %48, align 8
  %50 = load i32, ptr %8, align 4
  %51 = zext i32 %50 to i64
  %52 = call i32 @qtest_readl(ptr noundef %49, i64 noundef %51)
  store i32 %52, ptr %10, align 4
  %53 = load i32, ptr %10, align 4
  %54 = load i32, ptr %9, align 4
  %55 = icmp eq i32 %53, %54
  br i1 %55, label %56, label %66

56:                                               ; preds = %42
  %57 = load ptr, ptr %6, align 8
  %58 = getelementptr inbounds nuw %struct.QVirtioPCIDevice, ptr %57, i32 0, i32 2
  %59 = load ptr, ptr %58, align 8
  %60 = getelementptr inbounds nuw %struct.QPCIDevice, ptr %59, i32 0, i32 0
  %61 = load ptr, ptr %60, align 8
  %62 = getelementptr inbounds nuw %struct.QPCIBus, ptr %61, i32 0, i32 16
  %63 = load ptr, ptr %62, align 8
  %64 = load i32, ptr %8, align 4
  %65 = zext i32 %64 to i64
  call void @qtest_writel(ptr noundef %63, i64 noundef %65, i32 noundef 0)
  store i1 true, ptr %5, align 1
  store i32 1, ptr %13, align 4
  br label %67

66:                                               ; preds = %42
  store i1 false, ptr %5, align 1
  store i32 1, ptr %13, align 4
  br label %67

67:                                               ; preds = %66, %56, %35
  call void @llvm.lifetime.end.p0(i64 4, ptr %10) #5
  %68 = load i1, ptr %5, align 1
  ret i1 %68
}

; Function Attrs: nounwind sspstrong uwtable
define internal zeroext i1 @get_config_isr_status(ptr noundef %0) #0 {
  %2 = alloca i1, align 1
  %3 = alloca ptr, align 8
  %4 = alloca ptr, align 8
  %5 = alloca ptr, align 8
  %6 = alloca ptr, align 8
  %7 = alloca i32, align 4
  store ptr %0, ptr %3, align 8
  call void @llvm.lifetime.start.p0(i64 8, ptr %4) #5
  call void @llvm.lifetime.start.p0(i64 8, ptr %5) #5
  %8 = load ptr, ptr %3, align 8
  store ptr %8, ptr %5, align 8
  %9 = load ptr, ptr %5, align 8
  %10 = getelementptr inbounds i8, ptr %9, i64 -40
  store ptr %10, ptr %6, align 8
  call void @llvm.lifetime.end.p0(i64 8, ptr %5) #5
  %11 = load ptr, ptr %6, align 8
  store ptr %11, ptr %4, align 8
  %12 = load ptr, ptr %4, align 8
  %13 = getelementptr inbounds nuw %struct.QVirtioPCIDevice, ptr %12, i32 0, i32 2
  %14 = load ptr, ptr %13, align 8
  %15 = getelementptr inbounds nuw %struct.QPCIDevice, ptr %14, i32 0, i32 2
  %16 = load i8, ptr %15, align 4, !range !7, !noundef !8
  %17 = trunc i8 %16 to i1
  br i1 %17, label %18, label %32

18:                                               ; preds = %1
  %19 = load ptr, ptr %4, align 8
  %20 = load ptr, ptr %4, align 8
  %21 = getelementptr inbounds nuw %struct.QVirtioPCIDevice, ptr %20, i32 0, i32 5
  %22 = load i16, ptr %21, align 8
  %23 = zext i16 %22 to i32
  %24 = load ptr, ptr %4, align 8
  %25 = getelementptr inbounds nuw %struct.QVirtioPCIDevice, ptr %24, i32 0, i32 6
  %26 = load i64, ptr %25, align 8
  %27 = trunc i64 %26 to i32
  %28 = load ptr, ptr %4, align 8
  %29 = getelementptr inbounds nuw %struct.QVirtioPCIDevice, ptr %28, i32 0, i32 7
  %30 = load i32, ptr %29, align 8
  %31 = call zeroext i1 @get_msix_status(ptr noundef %19, i32 noundef %23, i32 noundef %27, i32 noundef %30)
  store i1 %31, ptr %2, align 1
  store i32 1, ptr %7, align 4
  br label %50

32:                                               ; preds = %1
  %33 = load ptr, ptr %4, align 8
  %34 = getelementptr inbounds nuw %struct.QVirtioPCIDevice, ptr %33, i32 0, i32 2
  %35 = load ptr, ptr %34, align 8
  %36 = load ptr, ptr %4, align 8
  %37 = getelementptr inbounds nuw %struct.QVirtioPCIDevice, ptr %36, i32 0, i32 3
  %38 = load ptr, ptr %4, align 8
  %39 = getelementptr inbounds nuw %struct.QVirtioPCIDevice, ptr %38, i32 0, i32 12
  %40 = load i32, ptr %39, align 4
  %41 = zext i32 %40 to i64
  %42 = getelementptr inbounds nuw { i64, i8 }, ptr %37, i32 0, i32 0
  %43 = load i64, ptr %42, align 8
  %44 = getelementptr inbounds nuw { i64, i8 }, ptr %37, i32 0, i32 1
  %45 = load i8, ptr %44, align 8
  %46 = call zeroext i8 @qpci_io_readb(ptr noundef %35, i64 %43, i8 %45, i64 noundef %41)
  %47 = zext i8 %46 to i32
  %48 = and i32 %47, 2
  %49 = icmp ne i32 %48, 0
  store i1 %49, ptr %2, align 1
  store i32 1, ptr %7, align 4
  br label %50

50:                                               ; preds = %32, %18
  call void @llvm.lifetime.end.p0(i64 8, ptr %4) #5
  %51 = load i1, ptr %2, align 1
  ret i1 %51
}

; Function Attrs: nounwind sspstrong uwtable
define internal void @wait_config_isr_status(ptr noundef %0, i64 noundef %1) #0 {
  %3 = alloca ptr, align 8
  %4 = alloca i64, align 8
  %5 = alloca i64, align 8
  %6 = alloca i32, align 4
  %7 = alloca i32, align 4
  store ptr %0, ptr %3, align 8
  store i64 %1, ptr %4, align 8
  call void @llvm.lifetime.start.p0(i64 8, ptr %5) #5
  %8 = call i64 @g_get_monotonic_time()
  store i64 %8, ptr %5, align 8
  br label %9

9:                                                ; preds = %32, %2
  %10 = load ptr, ptr %3, align 8
  %11 = call zeroext i1 @get_config_isr_status(ptr noundef %10)
  %12 = xor i1 %11, true
  br i1 %12, label %13, label %33

13:                                               ; preds = %9
  br label %14

14:                                               ; preds = %13
  call void @llvm.lifetime.start.p0(i64 4, ptr %6) #5
  store i32 0, ptr %6, align 4, !annotation !4
  %15 = call i64 @g_get_monotonic_time()
  %16 = load i64, ptr %5, align 8
  %17 = sub i64 %15, %16
  %18 = load i64, ptr %4, align 8
  %19 = icmp sle i64 %17, %18
  br i1 %19, label %20, label %21

20:                                               ; preds = %14
  store i32 1, ptr %6, align 4
  br label %22

21:                                               ; preds = %14
  store i32 0, ptr %6, align 4
  br label %22

22:                                               ; preds = %21, %20
  %23 = load i32, ptr %6, align 4
  store i32 %23, ptr %7, align 4
  call void @llvm.lifetime.end.p0(i64 4, ptr %6) #5
  %24 = load i32, ptr %7, align 4
  %25 = sext i32 %24 to i64
  %26 = call i64 @llvm.expect.i64(i64 %25, i64 1)
  %27 = icmp ne i64 %26, 0
  br i1 %27, label %28, label %29

28:                                               ; preds = %22
  br label %30

29:                                               ; preds = %22
  call void @g_assertion_message_expr(ptr noundef null, ptr noundef @.str, i32 noundef 179, ptr noundef @__func__.wait_config_isr_status, ptr noundef @.str.6) #6
  unreachable

30:                                               ; preds = %28
  br label %31

31:                                               ; preds = %30
  br label %32

32:                                               ; preds = %31
  br label %9, !llvm.loop !9

33:                                               ; preds = %9
  call void @llvm.lifetime.end.p0(i64 8, ptr %5) #5
  ret void
}