; Function Attrs: nounwind sspstrong uwtable
define internal void @wait_config_isr_status(ptr noundef readonly captures(none) %0, i64 noundef %1) #0 {
  %3 = tail call i64 @g_get_monotonic_time() #3
  %4 = getelementptr inbounds nuw i8, ptr %0, i64 32
  %5 = getelementptr inbounds nuw i8, ptr %0, i64 40
  %6 = getelementptr inbounds nuw i8, ptr %0, i64 100
  %7 = getelementptr inbounds nuw i8, ptr %0, i64 48
  %8 = getelementptr inbounds nuw i8, ptr %0, i64 64
  %9 = getelementptr inbounds nuw i8, ptr %0, i64 72
  %10 = getelementptr inbounds nuw i8, ptr %0, i64 80
  br label %11

11:                                               ; preds = %get_config_isr_status.exit.thread6, %2
  %12 = load ptr, ptr %4, align 8
  %13 = getelementptr inbounds nuw i8, ptr %12, i64 12
  %14 = load i8, ptr %13, align 4, !range !6, !noundef !7
  %15 = trunc nuw i8 %14 to i1
  br i1 %15, label %16, label %33

16:                                               ; preds = %11
  %17 = load i16, ptr %8, align 8
  %18 = load i64, ptr %9, align 8
  %19 = load i32, ptr %10, align 8
  %20 = tail call zeroext i1 @qpci_msix_masked(ptr noundef nonnull %12, i16 noundef zeroext %17) #3
  %21 = load ptr, ptr %4, align 8
  br i1 %20, label %get_config_isr_status.exit, label %22

22:                                               ; preds = %16
  %23 = load ptr, ptr %21, align 8
  %24 = getelementptr inbounds nuw i8, ptr %23, i64 128
  %25 = load ptr, ptr %24, align 8
  %26 = and i64 %18, 4294967295
  %27 = tail call i32 @qtest_readl(ptr noundef %25, i64 noundef %26) #3
  %28 = icmp eq i32 %27, %19
  br i1 %28, label %get_config_isr_status.exit.thread, label %get_config_isr_status.exit.thread6

get_config_isr_status.exit.thread:                ; preds = %22
  %29 = load ptr, ptr %4, align 8
  %30 = load ptr, ptr %29, align 8
  %31 = getelementptr inbounds nuw i8, ptr %30, i64 128
  %32 = load ptr, ptr %31, align 8
  tail call void @qtest_writel(ptr noundef %32, i64 noundef %26, i32 noundef 0) #3
  br label %.loopexit

33:                                               ; preds = %11
  %34 = load i32, ptr %6, align 4
  %35 = zext i32 %34 to i64
  %36 = load i64, ptr %5, align 8
  %37 = load i8, ptr %7, align 8
  %38 = tail call zeroext i8 @qpci_io_readb(ptr noundef nonnull %12, i64 %36, i8 %37, i64 noundef %35) #3
  %39 = and i8 %38, 2
  %.not8 = icmp eq i8 %39, 0
  br i1 %.not8, label %get_config_isr_status.exit.thread6, label %.loopexit

get_config_isr_status.exit:                       ; preds = %16
  %40 = tail call zeroext i1 @qpci_msix_pending(ptr noundef %21, i16 noundef zeroext %17) #3
  br i1 %40, label %.loopexit, label %get_config_isr_status.exit.thread6

get_config_isr_status.exit.thread6:               ; preds = %22, %33, %get_config_isr_status.exit
  %41 = tail call i64 @g_get_monotonic_time() #3
  %42 = sub i64 %41, %3
  %.not = icmp sgt i64 %42, %1
  br i1 %.not, label %43, label %11, !prof !8, !llvm.loop !9

43:                                               ; preds = %get_config_isr_status.exit.thread6
  tail call void @g_assertion_message_expr(ptr noundef null, ptr noundef nonnull @.str, i32 noundef 179, ptr noundef nonnull @__func__.wait_config_isr_status, ptr noundef nonnull @.str.6) #4
  unreachable

.loopexit:                                        ; preds = %33, %get_config_isr_status.exit, %get_config_isr_status.exit.thread
  ret void
}